target datalayout = "e-m:e-p270:32:32-p271:32:32-p272:64:64-i64:64-i128:128-f80:128-n8:16:32:64-S128"
target triple = "x86_64-pc-linux-gnu"

%struct.ASN1_ENCODING_st = type { ptr, i64, i32 }
%struct.X509_algor_st = type { ptr, ptr }
%struct.CRYPTO_REF_COUNT = type { i32 }
%struct.X509_req_st = type { %struct.X509_req_info_st, %struct.X509_algor_st, ptr, %struct.CRYPTO_REF_COUNT, ptr, ptr, ptr, ptr }
%struct.X509_req_info_st = type { %struct.ASN1_ENCODING_st, ptr, ptr, ptr, ptr }

; Function Attrs: nounwind uwtable
define ptr @X509_REQ_get0_pubkey(ptr noundef %0) #0 {
  %2 = alloca ptr, align 8
  %3 = alloca ptr, align 8
  store ptr %0, ptr %3, align 8, !tbaa !42
  %4 = load ptr, ptr %3, align 8, !tbaa !42
  %5 = icmp eq ptr %4, null
  br i1 %5, label %6, label %7

6:                                                ; preds = %1
  store ptr null, ptr %2, align 8
  br label %13

7:                                                ; preds = %1
  %8 = load ptr, ptr %3, align 8, !tbaa !42
  %9 = getelementptr inbounds nuw %struct.X509_req_st, ptr %8, i32 0, i32 0
  %10 = getelementptr inbounds nuw %struct.X509_req_info_st, ptr %9, i32 0, i32 3
  %11 = load ptr, ptr %10, align 8, !tbaa !53
  %12 = call ptr @X509_PUBKEY_get0(ptr noundef %11)
  store ptr %12, ptr %2, align 8
  br label %13

13:                                               ; preds = %7, %6
  %14 = load ptr, ptr %2, align 8
  ret ptr %14
}

; Function Attrs: nounwind uwtable
define i32 @X509_REQ_check_private_key(ptr noundef %0, ptr noundef %1) #0 {
  %3 = alloca ptr, align 8
  %4 = alloca ptr, align 8
  store ptr %0, ptr %3, align 8, !tbaa !42
  store ptr %1, ptr %4, align 8, !tbaa !8
  %5 = load ptr, ptr %3, align 8, !tbaa !42
  %6 = call ptr @X509_REQ_get0_pubkey(ptr noundef %5)
  %7 = load ptr, ptr %4, align 8, !tbaa !8
  %8 = call i32 @ossl_x509_check_private_key(ptr noundef %6, ptr noundef %7)
  ret i32 %8
}