; Function Attrs: nounwind uwtable
define i32 @X509_REQ_check_private_key(ptr noundef readonly captures(address_is_null) %0, ptr noundef %1) local_unnamed_addr #0 {
  %3 = icmp eq ptr %0, null
  br i1 %3, label %X509_REQ_get0_pubkey.exit, label %4

4:                                                ; preds = %2
  %5 = getelementptr inbounds nuw i8, ptr %0, i64 40
  %6 = load ptr, ptr %5, align 8, !tbaa !42
  %7 = tail call ptr @X509_PUBKEY_get0(ptr noundef %6) #8
  br label %X509_REQ_get0_pubkey.exit

X509_REQ_get0_pubkey.exit:                        ; preds = %2, %4
  %.0.i = phi ptr [ %7, %4 ], [ null, %2 ]
  %8 = tail call i32 @ossl_x509_check_private_key(ptr noundef %.0.i, ptr noundef %1) #8
  ret i32 %8
}